; Function Attrs: nounwind uwtable
define dso_local range(i32 -1, 1) i32 @container_p_stepd_delete(i32 noundef %0) local_unnamed_addr #0 {
  %2 = load i8, ptr @plugin_disabled, align 1, !range !8, !noundef !9
  %3 = trunc nuw i8 %2 to i1
  br i1 %3, label %6, label %4

4:                                                ; preds = %1
  %5 = tail call fastcc i32 @_delete_ns(i32 noundef %0)
  br label %6

6:                                                ; preds = %1, %4
  %.0 = phi i32 [ %5, %4 ], [ 0, %1 ]
  ret i32 %.0
}